target datalayout = "e-m:e-p270:32:32-p271:32:32-p272:64:64-i64:64-i128:128-f80:128-n8:16:32:64-S128"
target triple = "x86_64-pc-linux-gnu"

@_ZL14convertLamAlef = internal constant [8 x i16] [i16 1570, i16 1570, i16 1571, i16 1571, i16 1573, i16 1573, i16 1575, i16 1575], align 16

; Function Attrs: inlinehint mustprogress nounwind uwtable
define internal noundef i32 @_ZL13isLamAlefCharDs(i16 noundef zeroext %0) #3 {
  %2 = alloca i16, align 2
  store i16 %0, ptr %2, align 2, !tbaa !16
  %3 = load i16, ptr %2, align 2, !tbaa !16
  %4 = zext i16 %3 to i32
  %5 = icmp sge i32 %4, 65269
  br i1 %5, label %6, label %10

6:                                                ; preds = %1
  %7 = load i16, ptr %2, align 2, !tbaa !16
  %8 = zext i16 %7 to i32
  %9 = icmp sle i32 %8, 65276
  br label %10

10:                                               ; preds = %6, %1
  %11 = phi i1 [ false, %1 ], [ %9, %6 ]
  %12 = zext i1 %11 to i32
  ret i32 %12
}

; Function Attrs: mustprogress uwtable
define internal noundef i32 @_ZL25expandCompositCharAtBeginPDsiiP10UErrorCode(ptr noundef %0, i32 noundef %1, i32 noundef %2, ptr noundef %3) #0 {
  %5 = alloca i32, align 4
  %6 = alloca ptr, align 8
  %7 = alloca i32, align 4
  %8 = alloca i32, align 4
  %9 = alloca ptr, align 8
  %10 = alloca i32, align 4
  %11 = alloca i32, align 4
  %12 = alloca i32, align 4
  %13 = alloca ptr, align 8
  %14 = alloca i32, align 4
  store ptr %0, ptr %6, align 8, !tbaa !3
  store i32 %1, ptr %7, align 4, !tbaa !8
  store i32 %2, ptr %8, align 4, !tbaa !8
  store ptr %3, ptr %9, align 8, !tbaa !10
  call void @llvm.lifetime.start.p0(i64 4, ptr %10) #8
  store i32 0, ptr %10, align 4, !tbaa !8
  call void @llvm.lifetime.start.p0(i64 4, ptr %11) #8
  store i32 0, ptr %11, align 4, !tbaa !8
  call void @llvm.lifetime.start.p0(i64 4, ptr %12) #8
  store i32 0, ptr %12, align 4, !tbaa !8
  call void @llvm.lifetime.start.p0(i64 8, ptr %13) #8
  store ptr null, ptr %13, align 8, !tbaa !3
  %15 = load i32, ptr %7, align 4, !tbaa !8
  %16 = add nsw i32 %15, 1
  %17 = mul nsw i32 %16, 2
  %18 = sext i32 %17 to i64
  %19 = call noalias ptr @uprv_malloc_77(i64 noundef %18) #9
  store ptr %19, ptr %13, align 8, !tbaa !3
  %20 = load ptr, ptr %13, align 8, !tbaa !3
  %21 = icmp eq ptr %20, null
  br i1 %21, label %22, label %24

22:                                               ; preds = %4
  %23 = load ptr, ptr %9, align 8, !tbaa !10
  store i32 7, ptr %23, align 4, !tbaa !11
  store i32 0, ptr %5, align 4
  store i32 1, ptr %14, align 4
  br label %125

24:                                               ; preds = %4
  %25 = load ptr, ptr %13, align 8, !tbaa !3
  %26 = load i32, ptr %7, align 4, !tbaa !8
  %27 = add nsw i32 %26, 1
  %28 = mul nsw i32 %27, 2
  %29 = sext i32 %28 to i64
  call void @llvm.memset.p0.i64(ptr align 2 %25, i8 0, i64 %29, i1 false)
  store i32 0, ptr %10, align 4, !tbaa !8
  br label %30

30:                                               ; preds = %38, %24
  %31 = load ptr, ptr %6, align 8, !tbaa !3
  %32 = load i32, ptr %10, align 4, !tbaa !8
  %33 = sext i32 %32 to i64
  %34 = getelementptr inbounds i16, ptr %31, i64 %33
  %35 = load i16, ptr %34, align 2, !tbaa !16
  %36 = zext i16 %35 to i32
  %37 = icmp eq i32 %36, 32
  br i1 %37, label %38, label %43

38:                                               ; preds = %30
  %39 = load i32, ptr %12, align 4, !tbaa !8
  %40 = add nsw i32 %39, 1
  store i32 %40, ptr %12, align 4, !tbaa !8
  %41 = load i32, ptr %10, align 4, !tbaa !8
  %42 = add nsw i32 %41, 1
  store i32 %42, ptr %10, align 4, !tbaa !8
  br label %30, !llvm.loop !54

43:                                               ; preds = %30
  %44 = load i32, ptr %7, align 4, !tbaa !8
  %45 = sub nsw i32 %44, 1
  store i32 %45, ptr %11, align 4, !tbaa !8
  store i32 %45, ptr %10, align 4, !tbaa !8
  br label %46

46:                                               ; preds = %112, %43
  %47 = load i32, ptr %10, align 4, !tbaa !8
  %48 = icmp sge i32 %47, 0
  br i1 %48, label %49, label %52

49:                                               ; preds = %46
  %50 = load i32, ptr %11, align 4, !tbaa !8
  %51 = icmp sge i32 %50, 0
  br label %52

52:                                               ; preds = %49, %46
  %53 = phi i1 [ false, %46 ], [ %51, %49 ]
  br i1 %53, label %54, label %117

54:                                               ; preds = %52
  %55 = load i32, ptr %12, align 4, !tbaa !8
  %56 = icmp sgt i32 %55, 0
  br i1 %56, label %57, label %89

57:                                               ; preds = %54
  %58 = load ptr, ptr %6, align 8, !tbaa !3
  %59 = load i32, ptr %10, align 4, !tbaa !8
  %60 = sext i32 %59 to i64
  %61 = getelementptr inbounds i16, ptr %58, i64 %60
  %62 = load i16, ptr %61, align 2, !tbaa !16
  %63 = call noundef i32 @_ZL13isLamAlefCharDs(i16 noundef zeroext %62)
  %64 = icmp ne i32 %63, 0
  br i1 %64, label %65, label %89

65:                                               ; preds = %57
  %66 = load ptr, ptr %13, align 8, !tbaa !3
  %67 = load i32, ptr %11, align 4, !tbaa !8
  %68 = sext i32 %67 to i64
  %69 = getelementptr inbounds i16, ptr %66, i64 %68
  store i16 1604, ptr %69, align 2, !tbaa !16
  %70 = load ptr, ptr %6, align 8, !tbaa !3
  %71 = load i32, ptr %10, align 4, !tbaa !8
  %72 = sext i32 %71 to i64
  %73 = getelementptr inbounds i16, ptr %70, i64 %72
  %74 = load i16, ptr %73, align 2, !tbaa !16
  %75 = zext i16 %74 to i32
  %76 = sub nsw i32 %75, 65269
  %77 = sext i32 %76 to i64
  %78 = getelementptr inbounds [8 x i16], ptr @_ZL14convertLamAlef, i64 0, i64 %77
  %79 = load i16, ptr %78, align 2, !tbaa !16
  %80 = load ptr, ptr %13, align 8, !tbaa !3
  %81 = load i32, ptr %11, align 4, !tbaa !8
  %82 = sub nsw i32 %81, 1
  %83 = sext i32 %82 to i64
  %84 = getelementptr inbounds i16, ptr %80, i64 %83
  store i16 %79, ptr %84, align 2, !tbaa !16
  %85 = load i32, ptr %11, align 4, !tbaa !8
  %86 = add nsw i32 %85, -1
  store i32 %86, ptr %11, align 4, !tbaa !8
  %87 = load i32, ptr %12, align 4, !tbaa !8
  %88 = add nsw i32 %87, -1
  store i32 %88, ptr %12, align 4, !tbaa !8
  br label %112

89:                                               ; preds = %57, %54
  %90 = load i32, ptr %12, align 4, !tbaa !8
  %91 = icmp eq i32 %90, 0
  br i1 %91, label %92, label %102

92:                                               ; preds = %89
  %93 = load ptr, ptr %6, align 8, !tbaa !3
  %94 = load i32, ptr %10, align 4, !tbaa !8
  %95 = sext i32 %94 to i64
  %96 = getelementptr inbounds i16, ptr %93, i64 %95
  %97 = load i16, ptr %96, align 2, !tbaa !16
  %98 = call noundef i32 @_ZL13isLamAlefCharDs(i16 noundef zeroext %97)
  %99 = icmp ne i32 %98, 0
  br i1 %99, label %100, label %102

100:                                              ; preds = %92
  %101 = load ptr, ptr %9, align 8, !tbaa !10
  store i32 20, ptr %101, align 4, !tbaa !11
  br label %102

102:                                              ; preds = %100, %92, %89
  %103 = load ptr, ptr %6, align 8, !tbaa !3
  %104 = load i32, ptr %10, align 4, !tbaa !8
  %105 = sext i32 %104 to i64
  %106 = getelementptr inbounds i16, ptr %103, i64 %105
  %107 = load i16, ptr %106, align 2, !tbaa !16
  %108 = load ptr, ptr %13, align 8, !tbaa !3
  %109 = load i32, ptr %11, align 4, !tbaa !8
  %110 = sext i32 %109 to i64
  %111 = getelementptr inbounds i16, ptr %108, i64 %110
  store i16 %107, ptr %111, align 2, !tbaa !16
  br label %112

112:                                              ; preds = %102, %65
  %113 = load i32, ptr %10, align 4, !tbaa !8
  %114 = add nsw i32 %113, -1
  store i32 %114, ptr %10, align 4, !tbaa !8
  %115 = load i32, ptr %11, align 4, !tbaa !8
  %116 = add nsw i32 %115, -1
  store i32 %116, ptr %11, align 4, !tbaa !8
  br label %46, !llvm.loop !55

117:                                              ; preds = %52
  %118 = load ptr, ptr %6, align 8, !tbaa !3
  %119 = load ptr, ptr %13, align 8, !tbaa !3
  %120 = load i32, ptr %7, align 4, !tbaa !8
  %121 = call ptr @u_memcpy_77(ptr noundef %118, ptr noundef %119, i32 noundef %120)
  %122 = load ptr, ptr %13, align 8, !tbaa !3
  call void @uprv_free_77(ptr noundef %122)
  %123 = load i32, ptr %7, align 4, !tbaa !8
  store i32 %123, ptr %8, align 4, !tbaa !8
  %124 = load i32, ptr %8, align 4, !tbaa !8
  store i32 %124, ptr %5, align 4
  store i32 1, ptr %14, align 4
  br label %125

125:                                              ; preds = %117, %22
  call void @llvm.lifetime.end.p0(i64 8, ptr %13) #8
  call void @llvm.lifetime.end.p0(i64 4, ptr %12) #8
  call void @llvm.lifetime.end.p0(i64 4, ptr %11) #8
  call void @llvm.lifetime.end.p0(i64 4, ptr %10) #8
  %126 = load i32, ptr %5, align 4
  ret i32 %126
}