; Function Attrs: mustprogress uwtable
define internal fastcc noundef i32 @_ZL25expandCompositCharAtBeginPDsiiP10UErrorCode(ptr noundef nonnull %0, i32 noundef %1, ptr noundef nonnull writeonly captures(none) %2) unnamed_addr #0 {
  %4 = shl i32 %1, 1
  %5 = add i32 %4, 2
  %6 = sext i32 %5 to i64
  %7 = tail call noalias ptr @uprv_malloc_77(i64 noundef %6) #11
  %8 = icmp eq ptr %7, null
  br i1 %8, label %9, label %10

9:                                                ; preds = %3
  store i32 7, ptr %2, align 4, !tbaa !3
  br label %51

10:                                               ; preds = %3
  tail call void @llvm.memset.p0.i64(ptr nonnull align 2 %7, i8 0, i64 %6, i1 false)
  %11 = load i16, ptr %0, align 2, !tbaa !9
  %12 = icmp eq i16 %11, 32
  br i1 %12, label %.lr.ph, label %._crit_edge

.lr.ph:                                           ; preds = %10, %.lr.ph
  %indvars.iv = phi i64 [ %indvars.iv.next, %.lr.ph ], [ 0, %10 ]
  %indvars.iv.next = add nuw nsw i64 %indvars.iv, 1
  %13 = getelementptr inbounds nuw i16, ptr %0, i64 %indvars.iv.next
  %14 = load i16, ptr %13, align 2, !tbaa !9
  %15 = icmp eq i16 %14, 32
  br i1 %15, label %.lr.ph, label %._crit_edge.loopexit, !llvm.loop !44

._crit_edge.loopexit:                             ; preds = %.lr.ph
  %indvars = trunc i64 %indvars.iv.next to i32
  br label %._crit_edge

._crit_edge:                                      ; preds = %._crit_edge.loopexit, %10
  %.0.lcssa = phi i32 [ 0, %10 ], [ %indvars, %._crit_edge.loopexit ]
  %16 = icmp sgt i32 %1, 0
  br i1 %16, label %.lr.ph52.preheader, label %._crit_edge53

.lr.ph52.preheader:                               ; preds = %._crit_edge
  %17 = add nsw i32 %1, -1
  %18 = zext nneg i32 %17 to i64
  br label %.lr.ph52

.lr.ph52:                                         ; preds = %.lr.ph52.preheader, %45
  %indvars.iv57 = phi i64 [ %18, %.lr.ph52.preheader ], [ %indvars.iv.next58, %45 ]
  %.150 = phi i32 [ %.0.lcssa, %.lr.ph52.preheader ], [ %.2, %45 ]
  %.03949 = phi i32 [ %17, %.lr.ph52.preheader ], [ %46, %45 ]
  %19 = icmp sgt i32 %.150, 0
  br i1 %19, label %20, label %35

20:                                               ; preds = %.lr.ph52
  %21 = getelementptr inbounds nuw i16, ptr %0, i64 %indvars.iv57
  %22 = load i16, ptr %21, align 2, !tbaa !9
  %23 = add i16 %22, 259
  %24 = icmp ult i16 %23, -8
  br i1 %24, label %.thread, label %25

25:                                               ; preds = %20
  %26 = zext nneg i32 %.03949 to i64
  %27 = getelementptr inbounds nuw i16, ptr %7, i64 %26
  store i16 1604, ptr %27, align 2, !tbaa !9
  %28 = zext i16 %22 to i64
  %29 = add nsw i64 %28, -65269
  %30 = getelementptr inbounds [8 x i16], ptr @_ZL14convertLamAlef, i64 0, i64 %29
  %31 = load i16, ptr %30, align 2, !tbaa !9
  %32 = getelementptr i8, ptr %27, i64 -2
  store i16 %31, ptr %32, align 2, !tbaa !9
  %33 = add nsw i32 %.03949, -1
  %34 = add nsw i32 %.150, -1
  br label %45

35:                                               ; preds = %.lr.ph52
  %36 = icmp ne i32 %.150, 0
  %37 = getelementptr inbounds nuw i16, ptr %0, i64 %indvars.iv57
  %38 = load i16, ptr %37, align 2, !tbaa !9
  %39 = add i16 %38, 259
  %40 = icmp ult i16 %39, -8
  %or.cond = select i1 %36, i1 true, i1 %40
  br i1 %or.cond, label %.thread, label %41

41:                                               ; preds = %35
  store i32 20, ptr %2, align 4, !tbaa !3
  br label %.thread

.thread:                                          ; preds = %35, %20, %41
  %42 = phi i16 [ %22, %20 ], [ %38, %41 ], [ %38, %35 ]
  %43 = zext nneg i32 %.03949 to i64
  %44 = getelementptr inbounds nuw i16, ptr %7, i64 %43
  store i16 %42, ptr %44, align 2, !tbaa !9
  br label %45

45:                                               ; preds = %.thread, %25
  %.140 = phi i32 [ %33, %25 ], [ %.03949, %.thread ]
  %.2 = phi i32 [ %34, %25 ], [ %.150, %.thread ]
  %indvars.iv.next58 = add nsw i64 %indvars.iv57, -1
  %46 = add nsw i32 %.140, -1
  %47 = icmp sgt i64 %indvars.iv57, 0
  %48 = icmp sgt i32 %.140, 0
  %49 = select i1 %47, i1 %48, i1 false
  br i1 %49, label %.lr.ph52, label %._crit_edge53, !llvm.loop !45

._crit_edge53:                                    ; preds = %45, %._crit_edge
  %50 = tail call ptr @u_memcpy_77(ptr noundef nonnull %0, ptr noundef nonnull %7, i32 noundef %1)
  tail call void @uprv_free_77(ptr noundef nonnull %7)
  br label %51

51:                                               ; preds = %._crit_edge53, %9
  %.043 = phi i32 [ 0, %9 ], [ %1, %._crit_edge53 ]
  ret i32 %.043
}